; Function Attrs: nounwind uwtable
define hidden void @AnyIntXorSpans(ptr nocapture noundef readonly %0, ptr nocapture noundef readonly %1, ptr noundef %2, i32 noundef %3, ptr nocapture readnone %4, ptr nocapture noundef readonly %5) #1 {
  %7 = alloca [4 x i32], align 16
  %8 = getelementptr inbounds i8, ptr %0, i64 16
  %9 = load ptr, ptr %8, align 8
  %10 = getelementptr inbounds i8, ptr %5, i64 4
  %11 = load i32, ptr %10, align 4
  %12 = getelementptr inbounds i8, ptr %5, i64 8
  %13 = load i32, ptr %12, align 4
  %14 = getelementptr inbounds i8, ptr %0, i64 32
  %15 = load i32, ptr %14, align 8
  %16 = getelementptr inbounds i8, ptr %1, i64 32
  %17 = load ptr, ptr %16, align 8
  %18 = call zeroext i8 %17(ptr noundef %2, ptr noundef nonnull %7) #6
  %.not29 = icmp eq i8 %18, 0
  br i1 %.not29, label %._crit_edge, label %.lr.ph

.lr.ph:                                           ; preds = %6
  %19 = getelementptr inbounds i8, ptr %7, i64 4
  %20 = getelementptr inbounds i8, ptr %7, i64 8
  %21 = getelementptr inbounds i8, ptr %7, i64 12
  %22 = ptrtoint ptr %9 to i64
  %23 = sext i32 %15 to i64
  %24 = xor i32 %11, %3
  %25 = xor i32 %13, -1
  %26 = and i32 %24, %25
  br label %27

27:                                               ; preds = %.lr.ph, %.split28.us
  %28 = load i32, ptr %7, align 16
  %29 = load i32, ptr %20, align 8
  %.not30 = icmp eq i32 %29, %28
  br i1 %.not30, label %.split28.us, label %.lr.ph.us.preheader

.lr.ph.us.preheader:                              ; preds = %27
  %30 = sub i32 %29, %28
  %31 = sext i32 %28 to i64
  %32 = shl nsw i64 %31, 2
  %33 = add i64 %32, %22
  %34 = load i32, ptr %19, align 4
  %35 = sext i32 %34 to i64
  %36 = mul nsw i64 %35, %23
  %37 = add i64 %33, %36
  %38 = load i32, ptr %21, align 4
  %39 = sub nsw i32 %38, %34
  %wide.trip.count = zext i32 %30 to i64
  br label %.lr.ph.us

.lr.ph.us:                                        ; preds = %.lr.ph.us.preheader, %._crit_edge.us
  %.023.us = phi i32 [ %45, %._crit_edge.us ], [ %39, %.lr.ph.us.preheader ]
  %.022.in.us = phi i64 [ %44, %._crit_edge.us ], [ %37, %.lr.ph.us.preheader ]
  %.022.us = inttoptr i64 %.022.in.us to ptr
  br label %40

40:                                               ; preds = %.lr.ph.us, %40
  %indvars.iv = phi i64 [ 0, %.lr.ph.us ], [ %indvars.iv.next, %40 ]
  %41 = getelementptr inbounds i32, ptr %.022.us, i64 %indvars.iv
  %42 = load i32, ptr %41, align 4
  %43 = xor i32 %42, %26
  store i32 %43, ptr %41, align 4
  %indvars.iv.next = add nuw nsw i64 %indvars.iv, 1
  %exitcond.not = icmp eq i64 %indvars.iv.next, %wide.trip.count
  br i1 %exitcond.not, label %._crit_edge.us, label %40, !llvm.loop !18

._crit_edge.us:                                   ; preds = %40
  %44 = add nsw i64 %.022.in.us, %23
  %45 = add i32 %.023.us, -1
  %.not25.us = icmp eq i32 %45, 0
  br i1 %.not25.us, label %.split28.us, label %.lr.ph.us, !llvm.loop !19

.split28.us:                                      ; preds = %._crit_edge.us, %27
  %46 = load ptr, ptr %16, align 8
  %47 = call zeroext i8 %46(ptr noundef %2, ptr noundef nonnull %7) #6
  %.not = icmp eq i8 %47, 0
  br i1 %.not, label %._crit_edge, label %27, !llvm.loop !20

._crit_edge:                                      ; preds = %.split28.us, %6
  ret void
}